Microchip MPLAB XC8 Compiler V1.30 ()

Linker command line:

--edf=/opt/microchip/xc8/v1.30/dat/en_msgs.txt -cs \
  -h+dist/default/production/10_PressaoBarometrica_I2C_BM180_Adafruit.X.production.sym \
  --cmf=dist/default/production/10_PressaoBarometrica_I2C_BM180_Adafruit.X.production.cmf \
  -z -Q18F2525 -o/tmp/cgtSYGjTJ \
  -Mdist/default/production/10_PressaoBarometrica_I2C_BM180_Adafruit.X.production.map \
  -E1 -ver=XC8 -ASTACK=0130h-09ffh -pstack=STACK -ACODE=00h-0BFFFh \
  -ACONST=00h-0BFFFh -ASMALLCONST=01000h-010FFhx176 \
  -AMEDIUMCONST=01000h-0BFFFh -ACOMRAM=01h-07Fh -AABS1=00h-0F7Fh \
  -ABIGRAM=01h-0F7Fh -ARAM=080h-0FFh,0100h-01FFhx14,0F00h-0F7Fh \
  -ABANK0=080h-0FFh -ABANK1=0100h-01FFh -ABANK2=0200h-02FFh \
  -ABANK3=0300h-03FFh -ABANK4=0400h-04FFh -ABANK5=0500h-05FFh \
  -ABANK6=0600h-06FFh -ABANK7=0700h-07FFh -ABANK8=0800h-08FFh \
  -ABANK9=0900h-09FFh -ABANK10=0A00h-0AFFh -ABANK11=0B00h-0BFFh \
  -ABANK12=0C00h-0CFFh -ABANK13=0D00h-0DFFh -ABANK14=0E00h-0EFFh \
  -ABANK15=0F00h-0F7Fh -ASFR=0F80h-0FFFh \
  -preset_vec=00h,intcode,intcodelo,powerup,init,end_init -pramtop=01000h \
  -psmallconst=SMALLCONST -pmediumconst=MEDIUMCONST -pconst=CONST \
  -AFARRAM=00h-00h -ACONFIG=0300000h-030000Dh -pconfig=CONFIG \
  -AIDLOC=0200000h-0200007h -pidloc=IDLOC -AEEDATA=0F00000h-0F003FFh \
  -peeprom_data=EEDATA \
  -prdata=COMRAM,nvrram=COMRAM,nvbit=COMRAM,rbss=COMRAM,rbit=COMRAM \
  -pfarbss=FARRAM,fardata=FARRAM,nvFARRAM=FARRAM \
  -pintsave_regs=BIGRAM,bigbss=BIGRAM,bigdata=BIGRAM -pbss=RAM \
  -pidata=CODE,irdata=CODE,ibigdata=CODE,ifardata=CODE /tmp/cgtjx67io.obj \
  dist/default/production/10_PressaoBarometrica_I2C_BM180_Adafruit.X.production.obj 

Object code version is 3.11

Machine type is 18F2525

Call graph: (short form)




                Name                               Link     Load   Length Selector   Space Scale
/tmp/cgtjx67io.obj
                end_init                              0        0        4        0       0
                idloc                            200000   200000        8   200000       0
                config                           300000   300000        E   300000       0
dist/default/production/10_PressaoBarometrica_I2C_BM180_Adafruit.X.production.obj
                mediumconst                        BE50     BE50      1B0     5F28       0
                text25                             A41A     A41A       28     520D       0
                text24                             A35A     A35A       10     51AD       0
                text23                             A67C     A67C       66     533E       0
                text22                             A36A     A36A       14     51B5       0
                text21                             A3F4     A3F4       26     51FA       0
                text20                             A5D0     A5D0       56     52E8       0
                text19                             A58A     A58A       46     52C5       0
                text18                             A4C8     A4C8       3A     5264       0
                text17                             A442     A442       2A     5221       0
                text16                             AE84     AE84      3D6     5742       0
                text15                             A7D2     A7D2       B0     53E9       0
                text14                             AAD0     AAD0      3B4     5568       0
                text13                             A882     A882      108     5441       0
                text12                             A74C     A74C       86     53A6       0
                text11                             A626     A626       56     5313       0
                text10                             A502     A502       44     5281       0
                text9                              A546     A546       44     52A3       0
                text8                              B25A     B25A      BF6     592D       0
                text7                              A6E2     A6E2       6A     5371       0
                text6                              A396     A396       1C     51CB       0
                text5                              A356     A356        4     51AB       0
                text4                              A37E     A37E       18     51BF       0
                text3                              A3B2     A3B2       20     51D9       0
                text2                              A498     A498       30     524C       0
                text1                              A46C     A46C       2C     5236       0
                text0                              A98A     A98A      146     54C5       0
                cstackCOMRAM                          1        1       74        1       1
                cstackBANK0                          80       80       69       80       1
                cstackBANK1                         100      100       30      100       1
                bssBANK0                             E9       E9        C       80       1
                bssCOMRAM                            75       75        B        1       1
                cinit                              A3D2     A3D2       22     51E9       0

TOTAL           Name                               Link     Load   Length     Space
        CLASS   STACK          

        CLASS   CODE           
                end_init                              0        0        4         0
                text25                             A41A     A41A       28         0
                text24                             A35A     A35A       10         0
                text23                             A67C     A67C       66         0
                text22                             A36A     A36A       14         0
                text21                             A3F4     A3F4       26         0
                text20                             A5D0     A5D0       56         0
                text19                             A58A     A58A       46         0
                text18                             A4C8     A4C8       3A         0
                text17                             A442     A442       2A         0
                text16                             AE84     AE84      3D6         0
                text15                             A7D2     A7D2       B0         0
                text14                             AAD0     AAD0      3B4         0
                text13                             A882     A882      108         0
                text12                             A74C     A74C       86         0
                text11                             A626     A626       56         0
                text10                             A502     A502       44         0
                text9                              A546     A546       44         0
                text8                              B25A     B25A      BF6         0
                text7                              A6E2     A6E2       6A         0
                text6                              A396     A396       1C         0
                text5                              A356     A356        4         0
                text4                              A37E     A37E       18         0
                text3                              A3B2     A3B2       20         0
                text2                              A498     A498       30         0
                text1                              A46C     A46C       2C         0
                text0                              A98A     A98A      146         0
                cinit                              A3D2     A3D2       22         0

        CLASS   CONST          

        CLASS   SMALLCONST     

        CLASS   MEDIUMCONST    
                mediumconst                        BE50     BE50      1B0         0

        CLASS   COMRAM         
                cstackCOMRAM                          1        1       74         1
                bssCOMRAM                            75       75        B         1

        CLASS   ABS1           

        CLASS   BIGRAM         

        CLASS   RAM            

        CLASS   BANK0          
                cstackBANK0                          80       80       69         1
                bssBANK0                             E9       E9        C         1

        CLASS   BANK1          
                cstackBANK1                         100      100       30         1

        CLASS   BANK2          

        CLASS   BANK3          

        CLASS   BANK4          

        CLASS   BANK5          

        CLASS   BANK6          

        CLASS   BANK7          

        CLASS   BANK8          

        CLASS   BANK9          

        CLASS   BANK10         

        CLASS   BANK11         

        CLASS   BANK12         

        CLASS   BANK13         

        CLASS   BANK14         

        CLASS   BANK15         

        CLASS   SFR            

        CLASS   FARRAM         

        CLASS   CONFIG         
                config                           300000   300000        E         0

        CLASS   IDLOC          
                idloc                            200000   200000        8         0

        CLASS   EEDATA         



SEGMENTS        Name                           Load    Length   Top    Selector   Space  Class

                reset_vec                      000000  000004  000004         0       0  CODE    
                cstackCOMRAM                   000001  00007F  000080         1       1  COMRAM  
                cstackBANK0                    000080  000075  0000F5        80       1  BANK0   
                cstackBANK1                    000100  000030  000130       100       1  BANK1   
                text5                          00A356  000004  00A35A      51AB       0  CODE    
                text24                         00A35A  000010  00A36A      51AD       0  CODE    
                text22                         00A36A  000014  00A37E      51B5       0  CODE    
                text4                          00A37E  000018  00A396      51BF       0  CODE    
                text6                          00A396  00001C  00A3B2      51CB       0  CODE    
                text3                          00A3B2  000020  00A3D2      51D9       0  CODE    
                cinit                          00A3D2  000022  00A3F4      51E9       0  CODE    
                text21                         00A3F4  000026  00A41A      51FA       0  CODE    
                text25                         00A41A  000028  00A442      520D       0  CODE    
                text17                         00A442  00002A  00A46C      5221       0  CODE    
                text1                          00A46C  00002C  00A498      5236       0  CODE    
                text2                          00A498  000030  00A4C8      524C       0  CODE    
                text18                         00A4C8  00003A  00A502      5264       0  CODE    
                text10                         00A502  000044  00A546      5281       0  CODE    
                text9                          00A546  000044  00A58A      52A3       0  CODE    
                text19                         00A58A  000046  00A5D0      52C5       0  CODE    
                text20                         00A5D0  000056  00A626      52E8       0  CODE    
                text11                         00A626  000056  00A67C      5313       0  CODE    
                text23                         00A67C  000066  00A6E2      533E       0  CODE    
                text7                          00A6E2  00006A  00A74C      5371       0  CODE    
                text12                         00A74C  000086  00A7D2      53A6       0  CODE    
                text15                         00A7D2  0000B0  00A882      53E9       0  CODE    
                text13                         00A882  000108  00A98A      5441       0  CODE    
                text0                          00A98A  000146  00AAD0      54C5       0  CODE    
                text14                         00AAD0  0003B4  00AE84      5568       0  CODE    
                text16                         00AE84  0003D6  00B25A      5742       0  CODE    
                text8                          00B25A  000BF6  00BE50      592D       0  CODE    
                mediumconst                    00BE50  0001B0  00C000      5F28       0  MEDIUMCO
                idloc                          200000  000008  200008    200000       0  IDLOC   
                config                         300000  00000E  30000E    300000       0  CONFIG  


UNUSED ADDRESS RANGES

        Name                Unused          Largest block    Delta
        BANK0            0000F5-0000FF                B
        BANK1            000130-0001FF               D0
        BANK10           000A00-000AFF              100
        BANK11           000B00-000BFF              100
        BANK12           000C00-000CFF              100
        BANK13           000D00-000DFF              100
        BANK14           000E00-000EFF              100
        BANK15           000F00-000F7F               80
        BANK2            000200-0002FF              100
        BANK3            000300-0003FF              100
        BANK4            000400-0004FF              100
        BANK5            000500-0005FF              100
        BANK6            000600-0006FF              100
        BANK7            000700-0007FF              100
        BANK8            000800-0008FF              100
        BANK9            000900-0009FF              100
        BIGRAM           0000F5-0000FF                B
                         000130-000F7F              E50
        CODE             000004-00A355             A352
        CONST            000004-00A355             A352
        EEDATA           F00000-F003FF              400
        MEDIUMCONST      001000-00A355             9356
        RAM              0000F5-0000FF                B
                         000130-000F7F              100
        SFR              000F80-000FFF               80
        SMALLCONST       001000-00A355              100
        STACK            000130-0009FF              8D0

                                  Symbol Table

?___aldiv                      cstackCOMRAM 000001
?___lldiv                      cstackCOMRAM 000001
?___lmul                       cstackCOMRAM 000001
?___lwdiv                      cstackCOMRAM 000001
?___lwmod                      cstackCOMRAM 000009
?___wmul                       cstackCOMRAM 000001
?_lerBMP180                    cstackCOMRAM 000033
?_lerBMP180pressao             cstackCOMRAM 000067
?_lerBMP180temperatura         cstackCOMRAM 000067
?_sprintf                      cstackCOMRAM 000010
BMP180calibragem@msg           cstackBANK0  000080
BMP180conversor@b3             cstackBANK0  0000C5
BMP180conversor@b4             cstackBANK0  0000CD
BMP180conversor@b5             cstackBANK0  0000C1
BMP180conversor@b6             cstackBANK0  0000DD
BMP180conversor@b7             cstackBANK0  0000D1
BMP180conversor@msg            cstackBANK0  000091
BMP180conversor@p              cstackBANK0  0000D9
BMP180conversor@pressao        cstackCOMRAM 00006E
BMP180conversor@temp           cstackCOMRAM 00006C
BMP180conversor@up             cstackBANK0  0000BD
BMP180conversor@ut             cstackBANK0  0000B9
BMP180conversor@x1             cstackBANK0  0000E5
BMP180conversor@x2             cstackBANK0  0000E1
BMP180conversor@x3             cstackBANK0  0000D5
Delay10KTCYx@unit              cstackCOMRAM 000002
OpenI2C@slew                   cstackCOMRAM 000001
OpenI2C@sync_mode              cstackCOMRAM 000002
OpenUSART@config               cstackCOMRAM 000006
OpenUSART@spbrg                cstackCOMRAM 000001
WriteI2C@data_out              cstackCOMRAM 000003
WriteUSART@data                cstackCOMRAM 000001
_ADCON1                        (abs)        000FC1
_BMP180calibragem              text14       00AAD0
_BMP180conversor               text8        00B25A
_BMP180conversor$1874          cstackBANK0  0000C9
_CloseI2C                      text5        00A356
_Delay10KTCYx                  text4        00A37E
_IdleI2C                       text24       00A35A
_LATC3                         (abs)        007C5B
_LATC4                         (abs)        007C5C
_OpenI2C                       text3        00A3B2
_OpenUSART                     text7        00A6E2
_PIE1                          (abs)        000F9D
_PIE1bits                      (abs)        000F9D
_PIR1bits                      (abs)        000F9E
_PORTCbits                     (abs)        000F82
_RCSTA                         (abs)        000FAB
_RCSTAbits                     (abs)        000FAB
_ReadI2C                       text25       00A41A
_SPBRG                         (abs)        000FAF
_SPBRGH                        (abs)        000FB0
_SSPADD                        (abs)        000FC8
_SSPBUF                        (abs)        000FC9
_SSPCON1                       (abs)        000FC6
_SSPCON1bits                   (abs)        000FC6
_SSPCON2                       (abs)        000FC5
_SSPCON2bits                   (abs)        000FC5
_SSPSTAT                       (abs)        000FC7
_SSPSTATbits                   (abs)        000FC7
_TRISC0                        (abs)        007CA0
_TRISC1                        (abs)        007CA1
_TRISC2                        (abs)        007CA2
_TRISC6                        (abs)        007CA6
_TRISCbits                     (abs)        000F94
_TXREG                         (abs)        000FAD
_TXSTA                         (abs)        000FAC
_TXSTAbits                     (abs)        000FAC
_USART_Status                  bssCOMRAM    00007F
_WriteI2C                      text23       00A67C
_WriteUSART                    text22       00A36A
__CFG_LVP$OFF                  (abs)        000000
__CFG_OSC$HS                   (abs)        000000
__CFG_WDT$OFF                  (abs)        000000
__HRAM                         (abs)        000000
__Habs1                        abs1         000000
__Hbank0                       bank0        000000
__Hbank1                       bank1        000000
__Hbank10                      bank10       000000
__Hbank11                      bank11       000000
__Hbank12                      bank12       000000
__Hbank13                      bank13       000000
__Hbank14                      bank14       000000
__Hbank15                      bank15       000000
__Hbank2                       bank2        000000
__Hbank3                       bank3        000000
__Hbank4                       bank4        000000
__Hbank5                       bank5        000000
__Hbank6                       bank6        000000
__Hbank7                       bank7        000000
__Hbank8                       bank8        000000
__Hbank9                       bank9        000000
__Hbigbss                      bigbss       000000
__Hbigdata                     bigdata      000000
__Hbigram                      bigram       000000
__Hbss                         bss          000000
__HbssBANK0                    bssBANK0     000000
__HbssCOMRAM                   bssCOMRAM    000000
__Hcinit                       cinit        000000
__Hclrtext                     clrtext      000000
__Hcomram                      comram       000000
__Hconfig                      config       30000E
__Hconst                       const        000000
__HcstackBANK0                 cstackBANK0  000000
__HcstackBANK1                 cstackBANK1  000000
__HcstackCOMRAM                cstackCOMRAM 000000
__Hdata                        data         000000
__Heeprom_data                 eeprom_data  000000
__Hend_init                    end_init     000004
__Hfarbss                      farbss       000000
__Hfardata                     fardata      000000
__Hibigdata                    ibigdata     000000
__Hidata                       idata        000000
__Hidloc                       idloc        200008
__Hifardata                    ifardata     000000
__Hinit                        init         000000
__Hintcode                     intcode      000000
__Hintcode_body                intcode_body 000000
__Hintcodelo                   intcodelo    000000
__Hintentry                    intentry     000000
__Hintret                      intret       000000
__Hintsave_regs                intsave_regs 000000
__Hirdata                      irdata       000000
__Hmediumconst                 mediumconst  00C000
__HnvFARRAM                    nvFARRAM     000000
__Hnvbit                       nvbit        000000
__Hnvrram                      nvrram       000000
__Hparam                       rparam       000000
__Hpowerup                     powerup      000000
__Hram                         ram          000000
__Hramtop                      ramtop       001000
__Hrbit                        rbit         000000
__Hrbss                        rbss         000000
__Hrdata                       rdata        000000
__Hreset_vec                   reset_vec    000000
__Hrparam                      rparam       000000
__Hsfr                         sfr          000000
__Hsmallconst                  smallconst   000000
__Hstack                       stack        000000
__Hstruct                      struct       000000
__Htemp                        temp         000000
__Htext                        text         000000
__Htext0                       text0        000000
__Htext1                       text1        000000
__Htext10                      text10       000000
__Htext11                      text11       000000
__Htext12                      text12       000000
__Htext13                      text13       000000
__Htext14                      text14       000000
__Htext15                      text15       000000
__Htext16                      text16       000000
__Htext17                      text17       000000
__Htext18                      text18       000000
__Htext19                      text19       000000
__Htext2                       text2        000000
__Htext20                      text20       000000
__Htext21                      text21       000000
__Htext22                      text22       000000
__Htext23                      text23       000000
__Htext24                      text24       000000
__Htext25                      text25       000000
__Htext3                       text3        000000
__Htext4                       text4        000000
__Htext5                       text5        000000
__Htext6                       text6        000000
__Htext7                       text7        000000
__Htext8                       text8        000000
__Htext9                       text9        000000
__LRAM                         (abs)        000001
__Labs1                        abs1         000000
__Lbank0                       bank0        000000
__Lbank1                       bank1        000000
__Lbank10                      bank10       000000
__Lbank11                      bank11       000000
__Lbank12                      bank12       000000
__Lbank13                      bank13       000000
__Lbank14                      bank14       000000
__Lbank15                      bank15       000000
__Lbank2                       bank2        000000
__Lbank3                       bank3        000000
__Lbank4                       bank4        000000
__Lbank5                       bank5        000000
__Lbank6                       bank6        000000
__Lbank7                       bank7        000000
__Lbank8                       bank8        000000
__Lbank9                       bank9        000000
__Lbigbss                      bigbss       000000
__Lbigdata                     bigdata      000000
__Lbigram                      bigram       000000
__Lbss                         bss          000000
__LbssBANK0                    bssBANK0     000000
__LbssCOMRAM                   bssCOMRAM    000000
__Lcinit                       cinit        000000
__Lclrtext                     clrtext      000000
__Lcomram                      comram       000000
__Lconfig                      config       300000
__Lconst                       const        000000
__LcstackBANK0                 cstackBANK0  000000
__LcstackBANK1                 cstackBANK1  000000
__LcstackCOMRAM                cstackCOMRAM 000000
__Ldata                        data         000000
__Leeprom_data                 eeprom_data  000000
__Lend_init                    end_init     000000
__Lfarbss                      farbss       000000
__Lfardata                     fardata      000000
__Libigdata                    ibigdata     000000
__Lidata                       idata        000000
__Lidloc                       idloc        200000
__Lifardata                    ifardata     000000
__Linit                        init         000000
__Lintcode                     intcode      000000
__Lintcode_body                intcode_body 000000
__Lintcodelo                   intcodelo    000000
__Lintentry                    intentry     000000
__Lintret                      intret       000000
__Lintsave_regs                intsave_regs 000000
__Lirdata                      irdata       000000
__Lmediumconst                 mediumconst  00BE50
__LnvFARRAM                    nvFARRAM     000000
__Lnvbit                       nvbit        000000
__Lnvrram                      nvrram       000000
__Lparam                       rparam       000000
__Lpowerup                     powerup      000000
__Lram                         ram          000000
__Lramtop                      ramtop       001000
__Lrbit                        rbit         000000
__Lrbss                        rbss         000000
__Lrdata                       rdata        000000
__Lreset_vec                   reset_vec    000000
__Lrparam                      rparam       000000
__Lsfr                         sfr          000000
__Lsmallconst                  smallconst   000000
__Lstack                       stack        000000
__Lstruct                      struct       000000
__Ltemp                        temp         000000
__Ltext                        text         000000
__Ltext0                       text0        000000
__Ltext1                       text1        000000
__Ltext10                      text10       000000
__Ltext11                      text11       000000
__Ltext12                      text12       000000
__Ltext13                      text13       000000
__Ltext14                      text14       000000
__Ltext15                      text15       000000
__Ltext16                      text16       000000
__Ltext17                      text17       000000
__Ltext18                      text18       000000
__Ltext19                      text19       000000
__Ltext2                       text2        000000
__Ltext20                      text20       000000
__Ltext21                      text21       000000
__Ltext22                      text22       000000
__Ltext23                      text23       000000
__Ltext24                      text24       000000
__Ltext25                      text25       000000
__Ltext3                       text3        000000
__Ltext4                       text4        000000
__Ltext5                       text5        000000
__Ltext6                       text6        000000
__Ltext7                       text7        000000
__Ltext8                       text8        000000
__Ltext9                       text9        000000
__S0                           (abs)        30000E
__S1                           (abs)        000130
__S2                           (abs)        000000
___aldiv                       text13       00A882
___aldiv@counter               cstackCOMRAM 00000A
___aldiv@dividend              cstackCOMRAM 000001
___aldiv@divisor               cstackCOMRAM 000005
___aldiv@quotient              cstackCOMRAM 00000C
___aldiv@sign                  cstackCOMRAM 00000B
___inthi_sp                    stack        000000
___intlo_sp                    stack        000000
___lldiv                       text12       00A74C
___lldiv@counter               cstackCOMRAM 00000E
___lldiv@dividend              cstackCOMRAM 000001
___lldiv@divisor               cstackCOMRAM 000005
___lldiv@quotient              cstackCOMRAM 00000A
___lmul                        text11       00A626
___lmul@multiplicand           cstackCOMRAM 000005
___lmul@multiplier             cstackCOMRAM 000001
___lmul@product                cstackCOMRAM 000009
___lwdiv                       text20       00A5D0
___lwdiv@counter               cstackCOMRAM 000008
___lwdiv@dividend              cstackCOMRAM 000001
___lwdiv@divisor               cstackCOMRAM 000003
___lwdiv@quotient              cstackCOMRAM 000006
___lwmod                       text19       00A58A
___lwmod@counter               cstackCOMRAM 00000E
___lwmod@dividend              cstackCOMRAM 000009
___lwmod@divisor               cstackCOMRAM 00000B
___sp                          stack        000000
___wmul                        text18       00A4C8
___wmul@multiplicand           cstackCOMRAM 000003
___wmul@multiplier             cstackCOMRAM 000001
___wmul@product                cstackCOMRAM 000005
__accesstop                    (abs)        000080
__activetblptr                 (abs)        000002
__end_of_BMP180calibragem      text14       00AE84
__end_of_BMP180conversor       text8        00BE50
__end_of_CloseI2C              text5        00A35A
__end_of_Delay10KTCYx          text4        00A396
__end_of_IdleI2C               text24       00A36A
__end_of_OpenI2C               text3        00A3D2
__end_of_OpenUSART             text7        00A74C
__end_of_ReadI2C               text25       00A442
__end_of_WriteI2C              text23       00A6E2
__end_of_WriteUSART            text22       00A37E
__end_of___aldiv               text13       00A98A
__end_of___lldiv               text12       00A7D2
__end_of___lmul                text11       00A67C
__end_of___lwdiv               text20       00A626
__end_of___lwmod               text19       00A5D0
__end_of___wmul                text18       00A502
__end_of__initialization       cinit        00A3EA
__end_of__stringdata           mediumconst  00BFFF
__end_of_configuracao_EUSART   text6        00A3B2
__end_of_dpowers               mediumconst  00BE5B
__end_of_hexpowers             mediumconst  00BE63
__end_of_iniciarI2c            text2        00A4C8
__end_of_isdigit               text17       00A46C
__end_of_lerBMP180             text15       00A882
__end_of_lerBMP180pressao      text10       00A546
__end_of_lerBMP180temperatura  text9        00A58A
__end_of_main                  text0        00AAD0
__end_of_putrsUSART            text1        00A498
__end_of_putsUSART             text21       00A41A
__end_of_sprintf               text16       00B25A
__initialization               cinit        00A3D2
__mediumconst                  mediumconst  00BE50
__pbssBANK0                    bssBANK0     0000E9
__pbssCOMRAM                   bssCOMRAM    000075
__pcinit                       cinit        00A3D2
__pcstackBANK0                 cstackBANK0  000080
__pcstackBANK1                 cstackBANK1  000100
__pcstackCOMRAM                cstackCOMRAM 000001
__pmediumconst                 mediumconst  00BE50
__ptext0                       text0        00A98A
__ptext1                       text1        00A46C
__ptext10                      text10       00A502
__ptext11                      text11       00A626
__ptext12                      text12       00A74C
__ptext13                      text13       00A882
__ptext14                      text14       00AAD0
__ptext15                      text15       00A7D2
__ptext16                      text16       00AE84
__ptext17                      text17       00A442
__ptext18                      text18       00A4C8
__ptext19                      text19       00A58A
__ptext2                       text2        00A498
__ptext20                      text20       00A5D0
__ptext21                      text21       00A3F4
__ptext22                      text22       00A36A
__ptext23                      text23       00A67C
__ptext24                      text24       00A35A
__ptext25                      text25       00A41A
__ptext3                       text3        00A3B2
__ptext4                       text4        00A37E
__ptext5                       text5        00A356
__ptext6                       text6        00A396
__ptext7                       text7        00A6E2
__ptext8                       text8        00B25A
__ptext9                       text9        00A546
__ramtop                       ramtop       001000
__size_of_BMP180calibragem     (abs)        000000
__size_of_BMP180conversor      (abs)        000000
__size_of_CloseI2C             (abs)        000000
__size_of_Delay10KTCYx         (abs)        000000
__size_of_IdleI2C              (abs)        000000
__size_of_OpenI2C              (abs)        000000
__size_of_OpenUSART            (abs)        000000
__size_of_ReadI2C              (abs)        000000
__size_of_WriteI2C             (abs)        000000
__size_of_WriteUSART           (abs)        000000
__size_of___aldiv              (abs)        000000
__size_of___lldiv              (abs)        000000
__size_of___lmul               (abs)        000000
__size_of___lwdiv              (abs)        000000
__size_of___lwmod              (abs)        000000
__size_of___wmul               (abs)        000000
__size_of_configuracao_EUSART  (abs)        000000
__size_of_iniciarI2c           (abs)        000000
__size_of_isdigit              (abs)        000000
__size_of_lerBMP180            (abs)        000000
__size_of_lerBMP180pressao     (abs)        000000
__size_of_lerBMP180temperatura (abs)        000000
__size_of_main                 (abs)        000000
__size_of_putrsUSART           (abs)        000000
__size_of_putsUSART            (abs)        000000
__size_of_sprintf              (abs)        000000
__smallconst                   smallconst   000000
__stringdata                   mediumconst  00BE63
_ac1                           bssCOMRAM    000075
_ac2                           bssCOMRAM    000077
_ac3                           bssCOMRAM    000079
_ac4                           bssBANK0     0000E9
_ac5                           bssBANK0     0000EB
_ac6                           bssBANK0     0000ED
_b1                            bssCOMRAM    00007B
_b2                            bssCOMRAM    00007D
_configuracao_EUSART           text6        00A396
_dpowers                       mediumconst  00BE51
_hexpowers                     mediumconst  00BE5B
_iniciarI2c                    text2        00A498
_isdigit                       text17       00A442
_isdigit$1515                  cstackCOMRAM 000002
_lerBMP180                     text15       00A7D2
_lerBMP180pressao              text10       00A502
_lerBMP180temperatura          text9        00A546
_main                          text0        00A98A
_mb                            bssBANK0     0000EF
_mc                            bssBANK0     0000F1
_md                            bssBANK0     0000F3
_putrsUSART                    text1        00A46C
_putsUSART                     text21       00A3F4
_sprintf                       text16       00AE84
_sprintf$465                   cstackCOMRAM 000024
end_of_initialization          cinit        00A3EA
intlevel0                      text         000000
intlevel1                      text         000000
intlevel2                      text         000000
intlevel3                      text         000000
isdigit@c                      cstackCOMRAM 000003
lerBMP180@dado                 cstackCOMRAM 000065
lerBMP180@endereco             cstackCOMRAM 000060
lerBMP180@lsb                  cstackCOMRAM 000063
lerBMP180@msb                  cstackCOMRAM 000061
lerBMP180@msg                  cstackCOMRAM 000038
main@msg                       cstackBANK1  000100
main@pressao                   cstackBANK1  00012C
main@temperatura               cstackBANK1  000128
putrsUSART@data                cstackCOMRAM 000002
putsUSART@data                 cstackCOMRAM 000002
sprintf@_val                   cstackCOMRAM 00002A
sprintf@ap                     cstackCOMRAM 000027
sprintf@c                      cstackCOMRAM 000032
sprintf@f                      cstackCOMRAM 000012
sprintf@flag                   cstackCOMRAM 000029
sprintf@idx                    cstackCOMRAM 000026
sprintf@prec                   cstackCOMRAM 000031
sprintf@sp                     cstackCOMRAM 000010
sprintf@width                  cstackCOMRAM 00002F
stackhi                        (abs)        0009FF
stacklo                        (abs)        000130
start                          init         000000
start_initialization           cinit        00A3D2


FUNCTION INFORMATION:

 *************** function _main *****************
 Defined at:
		line 70 in file "main.c"
 Parameters:    Size  Location     Type
  argc            2  111[COMRAM] int 
  argv            3  113[COMRAM] PTR PTR unsigned char 
 Auto vars:     Size  Location     Type
  msg            40    0[BANK1 ] unsigned char [40]
  pressao         4   44[BANK1 ] long 
  temperatura     4   40[BANK1 ] long 
 Return value:  Size  Location     Type
                  2  111[COMRAM] int 
 Registers used:
		wreg, fsr2l, fsr2h, status,2, status,0, tblptrl, tblptrh, tblptru, prodl, prodh, cstack
 Tracked objects:
		On entry : 
		On exit  : 
		Unchanged: 
 Data sizes:     COMRAM   BANK0   BANK1   BANK2   BANK3   BANK4   BANK5   BANK6   BANK7   BANK8   BANK9  BANK10  BANK11  BANK12  BANK13  BANK14  BANK15
      Params:         5       0       0       0       0       0       0       0       0       0       0       0       0       0       0       0       0
      Locals:         0       0      48       0       0       0       0       0       0       0       0       0       0       0       0       0       0
      Temps:          0       0       0       0       0       0       0       0       0       0       0       0       0       0       0       0       0
      Totals:         5       0      48       0       0       0       0       0       0       0       0       0       0       0       0       0       0
Total ram usage:       53 bytes
 Hardware stack levels required when called:    5
 This function calls:
		_BMP180calibragem
		_BMP180conversor
		_Delay10KTCYx
		___aldiv
		_configuracao_EUSART
		_iniciarI2c
		_putrsUSART
		_putsUSART
		_sprintf
 This function is called by:
		Startup code after reset
 This function uses a non-reentrant model


 *************** function _putrsUSART *****************
 Defined at:
		line 13 in file "/opt/microchip/xc8/v1.30/sources/pic18/plib/USART/uputrs.c"
 Parameters:    Size  Location     Type
  data            2    1[COMRAM] PTR const unsigned char 
		 -> STR_2(32), STR_1(28), 
 Auto vars:     Size  Location     Type
		None
 Return value:  Size  Location     Type
		None               void
 Registers used:
		wreg, status,2, status,0, tblptrl, tblptrh, tblptru, cstack
 Tracked objects:
		On entry : 
		On exit  : 
		Unchanged: 
 Data sizes:     COMRAM   BANK0   BANK1   BANK2   BANK3   BANK4   BANK5   BANK6   BANK7   BANK8   BANK9  BANK10  BANK11  BANK12  BANK13  BANK14  BANK15
      Params:         2       0       0       0       0       0       0       0       0       0       0       0       0       0       0       0       0
      Locals:         0       0       0       0       0       0       0       0       0       0       0       0       0       0       0       0       0
      Temps:          0       0       0       0       0       0       0       0       0       0       0       0       0       0       0       0       0
      Totals:         2       0       0       0       0       0       0       0       0       0       0       0       0       0       0       0       0
Total ram usage:        2 bytes
 Hardware stack levels used:    1
 Hardware stack levels required when called:    1
 This function calls:
		_WriteUSART
 This function is called by:
		_main
 This function uses a non-reentrant model


 *************** function _iniciarI2c *****************
 Defined at:
		line 120 in file "main.c"
 Parameters:    Size  Location     Type
		None
 Auto vars:     Size  Location     Type
		None
 Return value:  Size  Location     Type
		None               void
 Registers used:
		wreg, status,2, status,0, cstack
 Tracked objects:
		On entry : 
		On exit  : 
		Unchanged: 
 Data sizes:     COMRAM   BANK0   BANK1   BANK2   BANK3   BANK4   BANK5   BANK6   BANK7   BANK8   BANK9  BANK10  BANK11  BANK12  BANK13  BANK14  BANK15
      Params:         0       0       0       0       0       0       0       0       0       0       0       0       0       0       0       0       0
      Locals:         0       0       0       0       0       0       0       0       0       0       0       0       0       0       0       0       0
      Temps:          1       0       0       0       0       0       0       0       0       0       0       0       0       0       0       0       0
      Totals:         1       0       0       0       0       0       0       0       0       0       0       0       0       0       0       0       0
Total ram usage:        1 bytes
 Hardware stack levels used:    1
 Hardware stack levels required when called:    1
 This function calls:
		_CloseI2C
		_Delay10KTCYx
		_OpenI2C
 This function is called by:
		_main
 This function uses a non-reentrant model


 *************** function _OpenI2C *****************
 Defined at:
		line 14 in file "/opt/microchip/xc8/v1.30/sources/pic18/plib/i2c/i2c_open.c"
 Parameters:    Size  Location     Type
  sync_mode       1    wreg     unsigned char 
  slew            1    0[COMRAM] unsigned char 
 Auto vars:     Size  Location     Type
  sync_mode       1    1[COMRAM] unsigned char 
 Return value:  Size  Location     Type
		None               void
 Registers used:
		wreg, status,2, status,0
 Tracked objects:
		On entry : 
		On exit  : 
		Unchanged: 
 Data sizes:     COMRAM   BANK0   BANK1   BANK2   BANK3   BANK4   BANK5   BANK6   BANK7   BANK8   BANK9  BANK10  BANK11  BANK12  BANK13  BANK14  BANK15
      Params:         1       0       0       0       0       0       0       0       0       0       0       0       0       0       0       0       0
      Locals:         1       0       0       0       0       0       0       0       0       0       0       0       0       0       0       0       0
      Temps:          0       0       0       0       0       0       0       0       0       0       0       0       0       0       0       0       0
      Totals:         2       0       0       0       0       0       0       0       0       0       0       0       0       0       0       0       0
Total ram usage:        2 bytes
 Hardware stack levels used:    1
 This function calls:
		Nothing
 This function is called by:
		_iniciarI2c
 This function uses a non-reentrant model


 *************** function _Delay10KTCYx *****************
 Defined at:
		line 8 in file "/opt/microchip/xc8/v1.30/sources/pic18/d10ktcyx.c"
 Parameters:    Size  Location     Type
  unit            1    wreg     unsigned char 
 Auto vars:     Size  Location     Type
  unit            1    1[COMRAM] unsigned char 
 Return value:  Size  Location     Type
		None               void
 Registers used:
		wreg
 Tracked objects:
		On entry : 
		On exit  : 
		Unchanged: 
 Data sizes:     COMRAM   BANK0   BANK1   BANK2   BANK3   BANK4   BANK5   BANK6   BANK7   BANK8   BANK9  BANK10  BANK11  BANK12  BANK13  BANK14  BANK15
      Params:         0       0       0       0       0       0       0       0       0       0       0       0       0       0       0       0       0
      Locals:         1       0       0       0       0       0       0       0       0       0       0       0       0       0       0       0       0
      Temps:          1       0       0       0       0       0       0       0       0       0       0       0       0       0       0       0       0
      Totals:         2       0       0       0       0       0       0       0       0       0       0       0       0       0       0       0       0
Total ram usage:        2 bytes
 Hardware stack levels used:    1
 This function calls:
		Nothing
 This function is called by:
		_main
		_iniciarI2c
 This function uses a non-reentrant model


 *************** function _CloseI2C *****************
 Defined at:
		line 19 in file "/opt/microchip/xc8/v1.30/sources/pic18/plib/i2c/i2c_clos.c"
 Parameters:    Size  Location     Type
		None
 Auto vars:     Size  Location     Type
		None
 Return value:  Size  Location     Type
		None               void
 Registers used:
		status,2, status,0
 Tracked objects:
		On entry : 
		On exit  : 
		Unchanged: 
 Data sizes:     COMRAM   BANK0   BANK1   BANK2   BANK3   BANK4   BANK5   BANK6   BANK7   BANK8   BANK9  BANK10  BANK11  BANK12  BANK13  BANK14  BANK15
      Params:         0       0       0       0       0       0       0       0       0       0       0       0       0       0       0       0       0
      Locals:         0       0       0       0       0       0       0       0       0       0       0       0       0       0       0       0       0
      Temps:          0       0       0       0       0       0       0       0       0       0       0       0       0       0       0       0       0
      Totals:         0       0       0       0       0       0       0       0       0       0       0       0       0       0       0       0       0
Total ram usage:        0 bytes
 Hardware stack levels used:    1
 This function calls:
		Nothing
 This function is called by:
		_iniciarI2c
 This function uses a non-reentrant model


 *************** function _configuracao_EUSART *****************
 Defined at:
		line 320 in file "main.c"
 Parameters:    Size  Location     Type
		None
 Auto vars:     Size  Location     Type
		None
 Return value:  Size  Location     Type
		None               void
 Registers used:
		wreg, status,2, status,0, cstack
 Tracked objects:
		On entry : 
		On exit  : 
		Unchanged: 
 Data sizes:     COMRAM   BANK0   BANK1   BANK2   BANK3   BANK4   BANK5   BANK6   BANK7   BANK8   BANK9  BANK10  BANK11  BANK12  BANK13  BANK14  BANK15
      Params:         0       0       0       0       0       0       0       0       0       0       0       0       0       0       0       0       0
      Locals:         0       0       0       0       0       0       0       0       0       0       0       0       0       0       0       0       0
      Temps:          0       0       0       0       0       0       0       0       0       0       0       0       0       0       0       0       0
      Totals:         0       0       0       0       0       0       0       0       0       0       0       0       0       0       0       0       0
Total ram usage:        0 bytes
 Hardware stack levels used:    1
 Hardware stack levels required when called:    1
 This function calls:
		_OpenUSART
 This function is called by:
		_main
 This function uses a non-reentrant model


 *************** function _OpenUSART *****************
 Defined at:
		line 73 in file "/opt/microchip/xc8/v1.30/sources/pic18/plib/USART/uopen.c"
 Parameters:    Size  Location     Type
  config          1    wreg     unsigned char 
  spbrg           2    0[COMRAM] unsigned int 
 Auto vars:     Size  Location     Type
  config          1    5[COMRAM] unsigned char 
 Return value:  Size  Location     Type
		None               void
 Registers used:
		wreg, status,2
 Tracked objects:
		On entry : 
		On exit  : 
		Unchanged: 
 Data sizes:     COMRAM   BANK0   BANK1   BANK2   BANK3   BANK4   BANK5   BANK6   BANK7   BANK8   BANK9  BANK10  BANK11  BANK12  BANK13  BANK14  BANK15
      Params:         2       0       0       0       0       0       0       0       0       0       0       0       0       0       0       0       0
      Locals:         1       0       0       0       0       0       0       0       0       0       0       0       0       0       0       0       0
      Temps:          3       0       0       0       0       0       0       0       0       0       0       0       0       0       0       0       0
      Totals:         6       0       0       0       0       0       0       0       0       0       0       0       0       0       0       0       0
Total ram usage:        6 bytes
 Hardware stack levels used:    1
 This function calls:
		Nothing
 This function is called by:
		_configuracao_EUSART
 This function uses a non-reentrant model


 *************** function _BMP180conversor *****************
 Defined at:
		line 214 in file "main.c"
 Parameters:    Size  Location     Type
  temp            2  107[COMRAM] PTR long 
		 -> main@temperatura(4), 
  pressao         2  109[COMRAM] PTR long 
		 -> main@pressao(4), 
 Auto vars:     Size  Location     Type
  msg            40   17[BANK0 ] unsigned char [40]
  x1              4  101[BANK0 ] long 
  x2              4   97[BANK0 ] long 
  b6              4   93[BANK0 ] long 
  p               4   89[BANK0 ] long 
  x3              4   85[BANK0 ] long 
  b7              4   81[BANK0 ] unsigned long 
  b4              4   77[BANK0 ] unsigned long 
  b3              4   69[BANK0 ] long 
  b5              4   65[BANK0 ] long 
  up              4   61[BANK0 ] long 
  ut              4   57[BANK0 ] long 
 Return value:  Size  Location     Type
		None               void
 Registers used:
		wreg, fsr2l, fsr2h, status,2, status,0, tblptrl, tblptrh, tblptru, prodl, prodh, cstack
 Tracked objects:
		On entry : 
		On exit  : 
		Unchanged: 
 Data sizes:     COMRAM   BANK0   BANK1   BANK2   BANK3   BANK4   BANK5   BANK6   BANK7   BANK8   BANK9  BANK10  BANK11  BANK12  BANK13  BANK14  BANK15
      Params:         4       0       0       0       0       0       0       0       0       0       0       0       0       0       0       0       0
      Locals:         0      88       0       0       0       0       0       0       0       0       0       0       0       0       0       0       0
      Temps:          0      17       0       0       0       0       0       0       0       0       0       0       0       0       0       0       0
      Totals:         4     105       0       0       0       0       0       0       0       0       0       0       0       0       0       0       0
Total ram usage:      109 bytes
 Hardware stack levels used:    1
 Hardware stack levels required when called:    4
 This function calls:
		___aldiv
		___lldiv
		___lmul
		_lerBMP180pressao
		_lerBMP180temperatura
		_putsUSART
		_sprintf
 This function is called by:
		_main
 This function uses a non-reentrant model


 *************** function _lerBMP180temperatura *****************
 Defined at:
		line 176 in file "main.c"
 Parameters:    Size  Location     Type
		None
 Auto vars:     Size  Location     Type
		None
 Return value:  Size  Location     Type
                  4  102[COMRAM] long 
 Registers used:
		wreg, fsr2l, fsr2h, status,2, status,0, tblptrl, tblptrh, tblptru, prodl, prodh, cstack
 Tracked objects:
		On entry : 
		On exit  : 
		Unchanged: 
 Data sizes:     COMRAM   BANK0   BANK1   BANK2   BANK3   BANK4   BANK5   BANK6   BANK7   BANK8   BANK9  BANK10  BANK11  BANK12  BANK13  BANK14  BANK15
      Params:         4       0       0       0       0       0       0       0       0       0       0       0       0       0       0       0       0
      Locals:         0       0       0       0       0       0       0       0       0       0       0       0       0       0       0       0       0
      Temps:          1       0       0       0       0       0       0       0       0       0       0       0       0       0       0       0       0
      Totals:         5       0       0       0       0       0       0       0       0       0       0       0       0       0       0       0       0
Total ram usage:        5 bytes
 Hardware stack levels used:    1
 Hardware stack levels required when called:    3
 This function calls:
		_WriteI2C
		_lerBMP180
 This function is called by:
		_BMP180conversor
 This function uses a non-reentrant model


 *************** function _lerBMP180pressao *****************
 Defined at:
		line 195 in file "main.c"
 Parameters:    Size  Location     Type
		None
 Auto vars:     Size  Location     Type
		None
 Return value:  Size  Location     Type
                  4  102[COMRAM] long 
 Registers used:
		wreg, fsr2l, fsr2h, status,2, status,0, tblptrl, tblptrh, tblptru, prodl, prodh, cstack
 Tracked objects:
		On entry : 
		On exit  : 
		Unchanged: 
 Data sizes:     COMRAM   BANK0   BANK1   BANK2   BANK3   BANK4   BANK5   BANK6   BANK7   BANK8   BANK9  BANK10  BANK11  BANK12  BANK13  BANK14  BANK15
      Params:         4       0       0       0       0       0       0       0       0       0       0       0       0       0       0       0       0
      Locals:         0       0       0       0       0       0       0       0       0       0       0       0       0       0       0       0       0
      Temps:          1       0       0       0       0       0       0       0       0       0       0       0       0       0       0       0       0
      Totals:         5       0       0       0       0       0       0       0       0       0       0       0       0       0       0       0       0
Total ram usage:        5 bytes
 Hardware stack levels used:    1
 Hardware stack levels required when called:    3
 This function calls:
		_WriteI2C
		_lerBMP180
 This function is called by:
		_BMP180conversor
 This function uses a non-reentrant model


 *************** function ___lmul *****************
 Defined at:
		line 2 in file "/opt/microchip/xc8/v1.30/sources/common/lmul.c"
 Parameters:    Size  Location     Type
  multiplier      4    0[COMRAM] unsigned long 
  multiplicand    4    4[COMRAM] unsigned long 
 Auto vars:     Size  Location     Type
  product         4    8[COMRAM] unsigned long 
 Return value:  Size  Location     Type
                  4    0[COMRAM] unsigned long 
 Registers used:
		wreg, status,2, status,0
 Tracked objects:
		On entry : 
		On exit  : 
		Unchanged: 
 Data sizes:     COMRAM   BANK0   BANK1   BANK2   BANK3   BANK4   BANK5   BANK6   BANK7   BANK8   BANK9  BANK10  BANK11  BANK12  BANK13  BANK14  BANK15
      Params:         8       0       0       0       0       0       0       0       0       0       0       0       0       0       0       0       0
      Locals:         4       0       0       0       0       0       0       0       0       0       0       0       0       0       0       0       0
      Temps:          0       0       0       0       0       0       0       0       0       0       0       0       0       0       0       0       0
      Totals:        12       0       0       0       0       0       0       0       0       0       0       0       0       0       0       0       0
Total ram usage:       12 bytes
 Hardware stack levels used:    1
 This function calls:
		Nothing
 This function is called by:
		_BMP180conversor
 This function uses a non-reentrant model


 *************** function ___lldiv *****************
 Defined at:
		line 8 in file "/opt/microchip/xc8/v1.30/sources/common/lldiv.c"
 Parameters:    Size  Location     Type
  dividend        4    0[COMRAM] unsigned long 
  divisor         4    4[COMRAM] unsigned long 
 Auto vars:     Size  Location     Type
  quotient        4    9[COMRAM] unsigned long 
  counter         1   13[COMRAM] unsigned char 
 Return value:  Size  Location     Type
                  4    0[COMRAM] unsigned long 
 Registers used:
		wreg, status,2, status,0
 Tracked objects:
		On entry : 
		On exit  : 
		Unchanged: 
 Data sizes:     COMRAM   BANK0   BANK1   BANK2   BANK3   BANK4   BANK5   BANK6   BANK7   BANK8   BANK9  BANK10  BANK11  BANK12  BANK13  BANK14  BANK15
      Params:         8       0       0       0       0       0       0       0       0       0       0       0       0       0       0       0       0
      Locals:         5       0       0       0       0       0       0       0       0       0       0       0       0       0       0       0       0
      Temps:          1       0       0       0       0       0       0       0       0       0       0       0       0       0       0       0       0
      Totals:        14       0       0       0       0       0       0       0       0       0       0       0       0       0       0       0       0
Total ram usage:       14 bytes
 Hardware stack levels used:    1
 This function calls:
		Nothing
 This function is called by:
		_BMP180conversor
 This function uses a non-reentrant model


 *************** function ___aldiv *****************
 Defined at:
		line 8 in file "/opt/microchip/xc8/v1.30/sources/common/aldiv.c"
 Parameters:    Size  Location     Type
  dividend        4    0[COMRAM] long 
  divisor         4    4[COMRAM] long 
 Auto vars:     Size  Location     Type
  quotient        4   11[COMRAM] long 
  sign            1   10[COMRAM] unsigned char 
  counter         1    9[COMRAM] unsigned char 
 Return value:  Size  Location     Type
                  4    0[COMRAM] long 
 Registers used:
		wreg, status,2, status,0
 Tracked objects:
		On entry : 
		On exit  : 
		Unchanged: 
 Data sizes:     COMRAM   BANK0   BANK1   BANK2   BANK3   BANK4   BANK5   BANK6   BANK7   BANK8   BANK9  BANK10  BANK11  BANK12  BANK13  BANK14  BANK15
      Params:         8       0       0       0       0       0       0       0       0       0       0       0       0       0       0       0       0
      Locals:         6       0       0       0       0       0       0       0       0       0       0       0       0       0       0       0       0
      Temps:          1       0       0       0       0       0       0       0       0       0       0       0       0       0       0       0       0
      Totals:        15       0       0       0       0       0       0       0       0       0       0       0       0       0       0       0       0
Total ram usage:       15 bytes
 Hardware stack levels used:    1
 This function calls:
		Nothing
 This function is called by:
		_main
		_BMP180conversor
 This function uses a non-reentrant model


 *************** function _BMP180calibragem *****************
 Defined at:
		line 289 in file "main.c"
 Parameters:    Size  Location     Type
		None
 Auto vars:     Size  Location     Type
  msg            40    0[BANK0 ] unsigned char [40]
 Return value:  Size  Location     Type
		None               void
 Registers used:
		wreg, fsr2l, fsr2h, status,2, status,0, tblptrl, tblptrh, tblptru, prodl, prodh, cstack
 Tracked objects:
		On entry : 
		On exit  : 
		Unchanged: 
 Data sizes:     COMRAM   BANK0   BANK1   BANK2   BANK3   BANK4   BANK5   BANK6   BANK7   BANK8   BANK9  BANK10  BANK11  BANK12  BANK13  BANK14  BANK15
      Params:         0       0       0       0       0       0       0       0       0       0       0       0       0       0       0       0       0
      Locals:         0      40       0       0       0       0       0       0       0       0       0       0       0       0       0       0       0
      Temps:          4       0       0       0       0       0       0       0       0       0       0       0       0       0       0       0       0
      Totals:         4      40       0       0       0       0       0       0       0       0       0       0       0       0       0       0       0
Total ram usage:       44 bytes
 Hardware stack levels used:    1
 Hardware stack levels required when called:    3
 This function calls:
		_lerBMP180
		_putsUSART
		_sprintf
 This function is called by:
		_main
 This function uses a non-reentrant model


 *************** function _lerBMP180 *****************
 Defined at:
		line 142 in file "main.c"
 Parameters:    Size  Location     Type
  endereco        1    wreg     unsigned char 
 Auto vars:     Size  Location     Type
  endereco        1   95[COMRAM] unsigned char 
  msg            40   55[COMRAM] unsigned char [40]
  dado            2  100[COMRAM] unsigned short 
  lsb             2   98[COMRAM] unsigned short 
  msb             2   96[COMRAM] unsigned short 
 Return value:  Size  Location     Type
                  4   50[COMRAM] long 
 Registers used:
		wreg, fsr2l, fsr2h, status,2, status,0, tblptrl, tblptrh, tblptru, prodl, prodh, cstack
 Tracked objects:
		On entry : 
		On exit  : 
		Unchanged: 
 Data sizes:     COMRAM   BANK0   BANK1   BANK2   BANK3   BANK4   BANK5   BANK6   BANK7   BANK8   BANK9  BANK10  BANK11  BANK12  BANK13  BANK14  BANK15
      Params:         4       0       0       0       0       0       0       0       0       0       0       0       0       0       0       0       0
      Locals:        47       0       0       0       0       0       0       0       0       0       0       0       0       0       0       0       0
      Temps:          1       0       0       0       0       0       0       0       0       0       0       0       0       0       0       0       0
      Totals:        52       0       0       0       0       0       0       0       0       0       0       0       0       0       0       0       0
Total ram usage:       52 bytes
 Hardware stack levels used:    1
 Hardware stack levels required when called:    2
 This function calls:
		_ReadI2C
		_WriteI2C
		_putsUSART
		_sprintf
 This function is called by:
		_lerBMP180temperatura
		_lerBMP180pressao
		_BMP180calibragem
 This function uses a non-reentrant model


 *************** function _sprintf *****************
 Defined at:
		line 492 in file "/opt/microchip/xc8/v1.30/sources/common/doprnt.c"
 Parameters:    Size  Location     Type
  sp              2   15[COMRAM] PTR unsigned char 
		 -> BMP180calibragem@msg(40), BMP180conversor@msg(40), lerBMP180@msg(40), main@msg(40), 
  f               2   17[COMRAM] PTR const unsigned char 
		 -> STR_22(27), STR_21(11), STR_20(11), STR_19(11), 
		 -> STR_18(11), STR_17(11), STR_16(12), STR_15(12), 
		 -> STR_14(12), STR_13(12), STR_12(12), STR_11(12), 
		 -> STR_10(28), STR_9(27), STR_8(28), STR_7(28), 
		 -> STR_6(25), STR_5(28), STR_4(17), STR_3(39), 
 Auto vars:     Size  Location     Type
  idx             1   37[COMRAM] unsigned char 
  _val            5   41[COMRAM] struct .
  width           2   46[COMRAM] int 
  ap              2   38[COMRAM] PTR void [1]
		 -> ?_sprintf(2), 
  c               1   49[COMRAM] char 
  prec            1   48[COMRAM] char 
  flag            1   40[COMRAM] unsigned char 
 Return value:  Size  Location     Type
                  2   15[COMRAM] int 
 Registers used:
		wreg, fsr2l, fsr2h, status,2, status,0, tblptrl, tblptrh, tblptru, prodl, prodh, cstack
 Tracked objects:
		On entry : 
		On exit  : 
		Unchanged: 
 Data sizes:     COMRAM   BANK0   BANK1   BANK2   BANK3   BANK4   BANK5   BANK6   BANK7   BANK8   BANK9  BANK10  BANK11  BANK12  BANK13  BANK14  BANK15
      Params:        16       0       0       0       0       0       0       0       0       0       0       0       0       0       0       0       0
      Locals:        15       0       0       0       0       0       0       0       0       0       0       0       0       0       0       0       0
      Temps:          4       0       0       0       0       0       0       0       0       0       0       0       0       0       0       0       0
      Totals:        35       0       0       0       0       0       0       0       0       0       0       0       0       0       0       0       0
Total ram usage:       35 bytes
 Hardware stack levels used:    1
 Hardware stack levels required when called:    1
 This function calls:
		___lwdiv
		___lwmod
		___wmul
		_isdigit
 This function is called by:
		_main
		_lerBMP180
		_BMP180conversor
		_BMP180calibragem
 This function uses a non-reentrant model


 *************** function _isdigit *****************
 Defined at:
		line 8 in file "/opt/microchip/xc8/v1.30/sources/common/isdigit.c"
 Parameters:    Size  Location     Type
  c               1    wreg     unsigned char 
 Auto vars:     Size  Location     Type
  c               1    2[COMRAM] unsigned char 
 Return value:  Size  Location     Type
		None               void
 Registers used:
		wreg, status,2, status,0
 Tracked objects:
		On entry : 
		On exit  : 
		Unchanged: 
 Data sizes:     COMRAM   BANK0   BANK1   BANK2   BANK3   BANK4   BANK5   BANK6   BANK7   BANK8   BANK9  BANK10  BANK11  BANK12  BANK13  BANK14  BANK15
      Params:         0       0       0       0       0       0       0       0       0       0       0       0       0       0       0       0       0
      Locals:         2       0       0       0       0       0       0       0       0       0       0       0       0       0       0       0       0
      Temps:          1       0       0       0       0       0       0       0       0       0       0       0       0       0       0       0       0
      Totals:         3       0       0       0       0       0       0       0       0       0       0       0       0       0       0       0       0
Total ram usage:        3 bytes
 Hardware stack levels used:    1
 This function calls:
		Nothing
 This function is called by:
		_sprintf
 This function uses a non-reentrant model


 *************** function ___wmul *****************
 Defined at:
		line 4 in file "/opt/microchip/xc8/v1.30/sources/common/wmul.c"
 Parameters:    Size  Location     Type
  multiplier      2    0[COMRAM] unsigned int 
  multiplicand    2    2[COMRAM] unsigned int 
 Auto vars:     Size  Location     Type
  product         2    4[COMRAM] unsigned int 
 Return value:  Size  Location     Type
                  2    0[COMRAM] unsigned int 
 Registers used:
		wreg, status,2, status,0, prodl, prodh
 Tracked objects:
		On entry : 
		On exit  : 
		Unchanged: 
 Data sizes:     COMRAM   BANK0   BANK1   BANK2   BANK3   BANK4   BANK5   BANK6   BANK7   BANK8   BANK9  BANK10  BANK11  BANK12  BANK13  BANK14  BANK15
      Params:         4       0       0       0       0       0       0       0       0       0       0       0       0       0       0       0       0
      Locals:         2       0       0       0       0       0       0       0       0       0       0       0       0       0       0       0       0
      Temps:          0       0       0       0       0       0       0       0       0       0       0       0       0       0       0       0       0
      Totals:         6       0       0       0       0       0       0       0       0       0       0       0       0       0       0       0       0
Total ram usage:        6 bytes
 Hardware stack levels used:    1
 This function calls:
		Nothing
 This function is called by:
		_sprintf
 This function uses a non-reentrant model


 *************** function ___lwmod *****************
 Defined at:
		line 8 in file "/opt/microchip/xc8/v1.30/sources/common/lwmod.c"
 Parameters:    Size  Location     Type
  dividend        2    8[COMRAM] unsigned int 
  divisor         2   10[COMRAM] unsigned int 
 Auto vars:     Size  Location     Type
  counter         1   13[COMRAM] unsigned char 
 Return value:  Size  Location     Type
                  2    8[COMRAM] unsigned int 
 Registers used:
		wreg, status,2, status,0
 Tracked objects:
		On entry : 
		On exit  : 
		Unchanged: 
 Data sizes:     COMRAM   BANK0   BANK1   BANK2   BANK3   BANK4   BANK5   BANK6   BANK7   BANK8   BANK9  BANK10  BANK11  BANK12  BANK13  BANK14  BANK15
      Params:         4       0       0       0       0       0       0       0       0       0       0       0       0       0       0       0       0
      Locals:         1       0       0       0       0       0       0       0       0       0       0       0       0       0       0       0       0
      Temps:          1       0       0       0       0       0       0       0       0       0       0       0       0       0       0       0       0
      Totals:         6       0       0       0       0       0       0       0       0       0       0       0       0       0       0       0       0
Total ram usage:        6 bytes
 Hardware stack levels used:    1
 This function calls:
		Nothing
 This function is called by:
		_sprintf
 This function uses a non-reentrant model


 *************** function ___lwdiv *****************
 Defined at:
		line 8 in file "/opt/microchip/xc8/v1.30/sources/common/lwdiv.c"
 Parameters:    Size  Location     Type
  dividend        2    0[COMRAM] unsigned int 
  divisor         2    2[COMRAM] unsigned int 
 Auto vars:     Size  Location     Type
  quotient        2    5[COMRAM] unsigned int 
  counter         1    7[COMRAM] unsigned char 
 Return value:  Size  Location     Type
                  2    0[COMRAM] unsigned int 
 Registers used:
		wreg, status,2, status,0
 Tracked objects:
		On entry : 
		On exit  : 
		Unchanged: 
 Data sizes:     COMRAM   BANK0   BANK1   BANK2   BANK3   BANK4   BANK5   BANK6   BANK7   BANK8   BANK9  BANK10  BANK11  BANK12  BANK13  BANK14  BANK15
      Params:         4       0       0       0       0       0       0       0       0       0       0       0       0       0       0       0       0
      Locals:         3       0       0       0       0       0       0       0       0       0       0       0       0       0       0       0       0
      Temps:          1       0       0       0       0       0       0       0       0       0       0       0       0       0       0       0       0
      Totals:         8       0       0       0       0       0       0       0       0       0       0       0       0       0       0       0       0
Total ram usage:        8 bytes
 Hardware stack levels used:    1
 This function calls:
		Nothing
 This function is called by:
		_sprintf
 This function uses a non-reentrant model


 *************** function _putsUSART *****************
 Defined at:
		line 14 in file "/opt/microchip/xc8/v1.30/sources/pic18/plib/USART/uputs.c"
 Parameters:    Size  Location     Type
  data            2    1[COMRAM] PTR unsigned char 
		 -> BMP180calibragem@msg(40), BMP180conversor@msg(40), lerBMP180@msg(40), main@msg(40), 
 Auto vars:     Size  Location     Type
		None
 Return value:  Size  Location     Type
		None               void
 Registers used:
		wreg, fsr2l, fsr2h, status,2, status,0, cstack
 Tracked objects:
		On entry : 
		On exit  : 
		Unchanged: 
 Data sizes:     COMRAM   BANK0   BANK1   BANK2   BANK3   BANK4   BANK5   BANK6   BANK7   BANK8   BANK9  BANK10  BANK11  BANK12  BANK13  BANK14  BANK15
      Params:         2       0       0       0       0       0       0       0       0       0       0       0       0       0       0       0       0
      Locals:         0       0       0       0       0       0       0       0       0       0       0       0       0       0       0       0       0
      Temps:          0       0       0       0       0       0       0       0       0       0       0       0       0       0       0       0       0
      Totals:         2       0       0       0       0       0       0       0       0       0       0       0       0       0       0       0       0
Total ram usage:        2 bytes
 Hardware stack levels used:    1
 Hardware stack levels required when called:    1
 This function calls:
		_WriteUSART
 This function is called by:
		_main
		_lerBMP180
		_BMP180conversor
		_BMP180calibragem
 This function uses a non-reentrant model


 *************** function _WriteUSART *****************
 Defined at:
		line 13 in file "/opt/microchip/xc8/v1.30/sources/pic18/plib/USART/uwrite.c"
 Parameters:    Size  Location     Type
  data            1    wreg     unsigned char 
 Auto vars:     Size  Location     Type
  data            1    0[COMRAM] unsigned char 
 Return value:  Size  Location     Type
		None               void
 Registers used:
		wreg
 Tracked objects:
		On entry : 
		On exit  : 
		Unchanged: 
 Data sizes:     COMRAM   BANK0   BANK1   BANK2   BANK3   BANK4   BANK5   BANK6   BANK7   BANK8   BANK9  BANK10  BANK11  BANK12  BANK13  BANK14  BANK15
      Params:         0       0       0       0       0       0       0       0       0       0       0       0       0       0       0       0       0
      Locals:         1       0       0       0       0       0       0       0       0       0       0       0       0       0       0       0       0
      Temps:          0       0       0       0       0       0       0       0       0       0       0       0       0       0       0       0       0
      Totals:         1       0       0       0       0       0       0       0       0       0       0       0       0       0       0       0       0
Total ram usage:        1 bytes
 Hardware stack levels used:    1
 This function calls:
		Nothing
 This function is called by:
		_putrsUSART
		_putsUSART
 This function uses a non-reentrant model


 *************** function _WriteI2C *****************
 Defined at:
		line 12 in file "/opt/microchip/xc8/v1.30/sources/pic18/plib/i2c/i2c_writ.c"
 Parameters:    Size  Location     Type
  data_out        1    wreg     unsigned char 
 Auto vars:     Size  Location     Type
  data_out        1    2[COMRAM] unsigned char 
 Return value:  Size  Location     Type
                  1    wreg      char 
 Registers used:
		wreg, status,2, status,0, cstack
 Tracked objects:
		On entry : 
		On exit  : 
		Unchanged: 
 Data sizes:     COMRAM   BANK0   BANK1   BANK2   BANK3   BANK4   BANK5   BANK6   BANK7   BANK8   BANK9  BANK10  BANK11  BANK12  BANK13  BANK14  BANK15
      Params:         0       0       0       0       0       0       0       0       0       0       0       0       0       0       0       0       0
      Locals:         1       0       0       0       0       0       0       0       0       0       0       0       0       0       0       0       0
      Temps:          1       0       0       0       0       0       0       0       0       0       0       0       0       0       0       0       0
      Totals:         2       0       0       0       0       0       0       0       0       0       0       0       0       0       0       0       0
Total ram usage:        2 bytes
 Hardware stack levels used:    1
 Hardware stack levels required when called:    1
 This function calls:
		_IdleI2C
 This function is called by:
		_lerBMP180
		_lerBMP180temperatura
		_lerBMP180pressao
 This function uses a non-reentrant model


 *************** function _IdleI2C *****************
 Defined at:
		line 24 in file "/opt/microchip/xc8/v1.30/sources/pic18/plib/i2c/i2c_idle.c"
 Parameters:    Size  Location     Type
		None
 Auto vars:     Size  Location     Type
		None
 Return value:  Size  Location     Type
		None               void
 Registers used:
		wreg, status,2, status,0
 Tracked objects:
		On entry : 
		On exit  : 
		Unchanged: 
 Data sizes:     COMRAM   BANK0   BANK1   BANK2   BANK3   BANK4   BANK5   BANK6   BANK7   BANK8   BANK9  BANK10  BANK11  BANK12  BANK13  BANK14  BANK15
      Params:         0       0       0       0       0       0       0       0       0       0       0       0       0       0       0       0       0
      Locals:         0       0       0       0       0       0       0       0       0       0       0       0       0       0       0       0       0
      Temps:          1       0       0       0       0       0       0       0       0       0       0       0       0       0       0       0       0
      Totals:         1       0       0       0       0       0       0       0       0       0       0       0       0       0       0       0       0
Total ram usage:        1 bytes
 Hardware stack levels used:    1
 This function calls:
		Nothing
 This function is called by:
		_WriteI2C
 This function uses a non-reentrant model


 *************** function _ReadI2C *****************
 Defined at:
		line 11 in file "/opt/microchip/xc8/v1.30/sources/pic18/plib/i2c/i2c_read.c"
 Parameters:    Size  Location     Type
		None
 Auto vars:     Size  Location     Type
		None
 Return value:  Size  Location     Type
                  1    wreg      unsigned char 
 Registers used:
		wreg, status,2, status,0
 Tracked objects:
		On entry : 
		On exit  : 
		Unchanged: 
 Data sizes:     COMRAM   BANK0   BANK1   BANK2   BANK3   BANK4   BANK5   BANK6   BANK7   BANK8   BANK9  BANK10  BANK11  BANK12  BANK13  BANK14  BANK15
      Params:         0       0       0       0       0       0       0       0       0       0       0       0       0       0       0       0       0
      Locals:         0       0       0       0       0       0       0       0       0       0       0       0       0       0       0       0       0
      Temps:          1       0       0       0       0       0       0       0       0       0       0       0       0       0       0       0       0
      Totals:         1       0       0       0       0       0       0       0       0       0       0       0       0       0       0       0       0
Total ram usage:        1 bytes
 Hardware stack levels used:    1
 This function calls:
		Nothing
 This function is called by:
		_lerBMP180
 This function uses a non-reentrant model



MODULE INFORMATION

Module		Function		Class		Link	Load	Size
/opt/microchip/xc8/v1.30/sources/common/lwmod.c
		___lwmod       		CODE           	A58A	0000	70

/opt/microchip/xc8/v1.30/sources/common/lwmod.c estimated size: 70

/opt/microchip/xc8/v1.30/sources/common/lwdiv.c
		___lwdiv       		CODE           	A5D0	0000	86

/opt/microchip/xc8/v1.30/sources/common/lwdiv.c estimated size: 86

/opt/microchip/xc8/v1.30/sources/common/lmul.c
		___lmul        		CODE           	A626	0000	86

/opt/microchip/xc8/v1.30/sources/common/lmul.c estimated size: 86

shared
		__stringdata   		MEDIUMCONST    	BE63	0000	412
		_dpowers       		MEDIUMCONST    	BE51	0000	10
		__initializatio		CODE           	A3D2	0000	24
		_hexpowers     		MEDIUMCONST    	BE5B	0000	8

shared estimated size: 454

/opt/microchip/xc8/v1.30/sources/pic18/plib/i2c/i2c_open.c
		_OpenI2C       		CODE           	A3B2	0000	32

/opt/microchip/xc8/v1.30/sources/pic18/plib/i2c/i2c_open.c estimated size: 32

/opt/microchip/xc8/v1.30/sources/common/isdigit.c
		_isdigit       		CODE           	A442	0000	42

/opt/microchip/xc8/v1.30/sources/common/isdigit.c estimated size: 42

main.c
		_main          		CODE           	A98A	0000	326
		_lerBMP180     		CODE           	A7D2	0000	176
		_iniciarI2c    		CODE           	A498	0000	48
		_BMP180calibrag		CODE           	AAD0	0000	948
		_lerBMP180tempe		CODE           	A546	0000	68
		_lerBMP180press		CODE           	A502	0000	68
		_BMP180converso		CODE           	B25A	0000	3062
		_configuracao_E		CODE           	A396	0000	28

main.c estimated size: 4724

/opt/microchip/xc8/v1.30/sources/pic18/plib/i2c/i2c_idle.c
		_IdleI2C       		CODE           	A35A	0000	16

/opt/microchip/xc8/v1.30/sources/pic18/plib/i2c/i2c_idle.c estimated size: 16

/opt/microchip/xc8/v1.30/sources/pic18/plib/USART/uputrs.c
		_putrsUSART    		CODE           	A46C	0000	44

/opt/microchip/xc8/v1.30/sources/pic18/plib/USART/uputrs.c estimated size: 44

/opt/microchip/xc8/v1.30/sources/common/aldiv.c
		___aldiv       		CODE           	A882	0000	264

/opt/microchip/xc8/v1.30/sources/common/aldiv.c estimated size: 264

/opt/microchip/xc8/v1.30/sources/common/lldiv.c
		___lldiv       		CODE           	A74C	0000	134

/opt/microchip/xc8/v1.30/sources/common/lldiv.c estimated size: 134

/opt/microchip/xc8/v1.30/sources/pic18/plib/i2c/i2c_writ.c
		_WriteI2C      		CODE           	A67C	0000	102

/opt/microchip/xc8/v1.30/sources/pic18/plib/i2c/i2c_writ.c estimated size: 102

/opt/microchip/xc8/v1.30/sources/pic18/plib/USART/uputs.c
		_putsUSART     		CODE           	A3F4	0000	38

/opt/microchip/xc8/v1.30/sources/pic18/plib/USART/uputs.c estimated size: 38

/opt/microchip/xc8/v1.30/sources/pic18/plib/USART/uwrite.c
		_WriteUSART    		CODE           	A36A	0000	20

/opt/microchip/xc8/v1.30/sources/pic18/plib/USART/uwrite.c estimated size: 20

/opt/microchip/xc8/v1.30/sources/pic18/plib/USART/uopen.c
		_OpenUSART     		CODE           	A6E2	0000	106

/opt/microchip/xc8/v1.30/sources/pic18/plib/USART/uopen.c estimated size: 106

/opt/microchip/xc8/v1.30/sources/common/wmul.c
		___wmul        		CODE           	A4C8	0000	58

/opt/microchip/xc8/v1.30/sources/common/wmul.c estimated size: 58

/opt/microchip/xc8/v1.30/sources/pic18/plib/i2c/i2c_clos.c
		_CloseI2C      		CODE           	A356	0000	4

/opt/microchip/xc8/v1.30/sources/pic18/plib/i2c/i2c_clos.c estimated size: 4

/opt/microchip/xc8/v1.30/sources/common/doprnt.c
		_sprintf       		CODE           	AE84	0000	982

/opt/microchip/xc8/v1.30/sources/common/doprnt.c estimated size: 982

/opt/microchip/xc8/v1.30/sources/pic18/d10ktcyx.c
		_Delay10KTCYx  		CODE           	A37E	0000	24

/opt/microchip/xc8/v1.30/sources/pic18/d10ktcyx.c estimated size: 24

/opt/microchip/xc8/v1.30/sources/pic18/plib/i2c/i2c_read.c
		_ReadI2C       		CODE           	A41A	0000	40

/opt/microchip/xc8/v1.30/sources/pic18/plib/i2c/i2c_read.c estimated size: 40

